target datalayout = "e-m:e-p270:32:32-p271:32:32-p272:64:64-i64:64-i128:128-f80:128-n8:16:32:64-S128"
target triple = "x86_64-pc-linux-gnu"

%struct.Abc_Frame_t_ = type { ptr, ptr, ptr, ptr, ptr, ptr, ptr, ptr, ptr, ptr, i32, i32, i32, i32, i32, ptr, float, float, i32, i32, ptr, ptr, ptr, double, double, ptr, ptr, ptr, ptr, ptr, ptr, ptr, ptr, ptr, ptr, ptr, ptr, float, ptr, i32, ptr, ptr, ptr, ptr, ptr, i32, i32, i32, i32, i32, i32, ptr, ptr, ptr, ptr, ptr, ptr, i32, i32, ptr, ptr, ptr, ptr, ptr, ptr, ptr, ptr, ptr, ptr, ptr, ptr, ptr, ptr, ptr, ptr, ptr, ptr, ptr, ptr, ptr, ptr, ptr, ptr, ptr, ptr, ptr, ptr, ptr, ptr }
%struct.Vec_Ptr_t_ = type { i32, i32, ptr }

; Function Attrs: nounwind uwtable
define internal ptr @Vec_PtrEntry(ptr noundef %0, i32 noundef %1) #0 {
  %3 = alloca ptr, align 8
  %4 = alloca i32, align 4
  store ptr %0, ptr %3, align 8
  store i32 %1, ptr %4, align 4
  %5 = load ptr, ptr %3, align 8
  %6 = getelementptr inbounds %struct.Vec_Ptr_t_, ptr %5, i32 0, i32 2
  %7 = load ptr, ptr %6, align 8
  %8 = load i32, ptr %4, align 4
  %9 = sext i32 %8 to i64
  %10 = getelementptr inbounds ptr, ptr %7, i64 %9
  %11 = load ptr, ptr %10, align 8
  ret ptr %11
}

; Function Attrs: nounwind uwtable
define internal i32 @Vec_PtrSize(ptr noundef %0) #0 {
  %2 = alloca ptr, align 8
  store ptr %0, ptr %2, align 8
  %3 = load ptr, ptr %2, align 8
  %4 = getelementptr inbounds %struct.Vec_Ptr_t_, ptr %3, i32 0, i32 1
  %5 = load i32, ptr %4, align 4
  ret i32 %5
}

; Function Attrs: nounwind uwtable
define ptr @Abc_GetBinaryName(ptr noundef %0, i32 noundef %1, ptr noundef %2) #0 {
  %4 = alloca ptr, align 8
  %5 = alloca ptr, align 8
  %6 = alloca i32, align 4
  %7 = alloca ptr, align 8
  %8 = alloca ptr, align 8
  %9 = alloca i32, align 4
  store ptr %0, ptr %5, align 8
  store i32 %1, ptr %6, align 4
  store ptr %2, ptr %7, align 8
  store i32 0, ptr %9, align 4
  br label %10

10:                                               ; preds = %41, %3
  %11 = load i32, ptr %9, align 4
  %12 = load ptr, ptr %5, align 8
  %13 = getelementptr inbounds %struct.Abc_Frame_t_, ptr %12, i32 0, i32 59
  %14 = load ptr, ptr %13, align 8
  %15 = call i32 @Vec_PtrSize(ptr noundef %14)
  %16 = icmp slt i32 %11, %15
  br i1 %16, label %17, label %23

17:                                               ; preds = %10
  %18 = load ptr, ptr %5, align 8
  %19 = getelementptr inbounds %struct.Abc_Frame_t_, ptr %18, i32 0, i32 59
  %20 = load ptr, ptr %19, align 8
  %21 = load i32, ptr %9, align 4
  %22 = call ptr @Vec_PtrEntry(ptr noundef %20, i32 noundef %21)
  store ptr %22, ptr %8, align 8
  br label %23

23:                                               ; preds = %17, %10
  %24 = phi i1 [ false, %10 ], [ true, %17 ]
  br i1 %24, label %25, label %44

25:                                               ; preds = %23
  %26 = load i32, ptr %9, align 4
  %27 = add nsw i32 %26, 1
  store i32 %27, ptr %9, align 4
  %28 = load ptr, ptr %8, align 8
  %29 = load ptr, ptr %7, align 8
  %30 = getelementptr inbounds ptr, ptr %29, i64 0
  %31 = load ptr, ptr %30, align 8
  %32 = call i32 @strcmp(ptr noundef %28, ptr noundef %31) #8
  %33 = icmp eq i32 %32, 0
  br i1 %33, label %34, label %40

34:                                               ; preds = %25
  %35 = load ptr, ptr %5, align 8
  %36 = getelementptr inbounds %struct.Abc_Frame_t_, ptr %35, i32 0, i32 59
  %37 = load ptr, ptr %36, align 8
  %38 = load i32, ptr %9, align 4
  %39 = call ptr @Vec_PtrEntry(ptr noundef %37, i32 noundef %38)
  store ptr %39, ptr %4, align 8
  br label %45

40:                                               ; preds = %25
  br label %41

41:                                               ; preds = %40
  %42 = load i32, ptr %9, align 4
  %43 = add nsw i32 %42, 1
  store i32 %43, ptr %9, align 4
  br label %10, !llvm.loop !4

44:                                               ; preds = %23
  store ptr null, ptr %4, align 8
  br label %45

45:                                               ; preds = %44, %34
  %46 = load ptr, ptr %4, align 8
  ret ptr %46
}