; Function Attrs: nofree nounwind memory(read, inaccessiblemem: none) uwtable
define ptr @Abc_GetBinaryName(ptr noundef readonly captures(none) %0, i32 noundef %1, ptr noundef readonly captures(none) %2) local_unnamed_addr #0 {
  %4 = getelementptr inbounds nuw i8, ptr %0, i64 408
  %5 = load ptr, ptr %4, align 8
  %6 = getelementptr i8, ptr %5, i64 4
  %.val = load i32, ptr %6, align 4
  %7 = icmp sgt i32 %.val, 0
  br i1 %7, label %.lr.ph, label %.critedge

.lr.ph:                                           ; preds = %3
  %8 = getelementptr i8, ptr %5, i64 8
  %.val11 = load ptr, ptr %8, align 8
  %9 = load ptr, ptr %2, align 8
  br label %10

10:                                               ; preds = %.lr.ph, %20
  %indvars.iv = phi i64 [ 0, %.lr.ph ], [ %indvars.iv.next, %20 ]
  %11 = getelementptr inbounds nuw ptr, ptr %.val11, i64 %indvars.iv
  %12 = load ptr, ptr %11, align 8
  %13 = tail call i32 @strcmp(ptr noundef nonnull dereferenceable(1) %12, ptr noundef nonnull dereferenceable(1) %9) #13
  %14 = icmp eq i32 %13, 0
  br i1 %14, label %15, label %20

15:                                               ; preds = %10
  %16 = and i64 %indvars.iv, 4294967294
  %17 = or disjoint i64 %16, 1
  %18 = getelementptr inbounds nuw ptr, ptr %.val11, i64 %17
  %19 = load ptr, ptr %18, align 8
  br label %.critedge

20:                                               ; preds = %10
  %indvars.iv.next = add nuw nsw i64 %indvars.iv, 2
  %21 = trunc nuw i64 %indvars.iv.next to i32
  %22 = icmp sgt i32 %.val, %21
  br i1 %22, label %10, label %.critedge, !llvm.loop !4

.critedge:                                        ; preds = %20, %3, %15
  %.010 = phi ptr [ %19, %15 ], [ null, %3 ], [ null, %20 ]
  ret ptr %.010
}